; Function Attrs: nounwind uwtable
define zeroext range(i8 0, 2) i8 @l_Int_Linear_eq__coeff__cert(ptr noundef %0, ptr noundef %1, ptr noundef %2) local_unnamed_addr #1 {
  %4 = load ptr, ptr @l_Int_Linear_instInhabitedExpr___closed__1, align 8, !tbaa !11
  %5 = ptrtoint ptr %2 to i64
  %6 = ptrtoint ptr %4 to i64
  %7 = and i64 %5, 1
  %8 = and i64 %7, %6
  %or.cond.not.i.i.i = icmp eq i64 %8, 0
  br i1 %or.cond.not.i.i.i, label %lean_int_dec_eq.exit.i, label %9, !prof !13

9:                                                ; preds = %3
  %10 = icmp eq ptr %2, %4
  br i1 %10, label %14, label %12

lean_int_dec_eq.exit.i:                           ; preds = %3
  %11 = tail call zeroext i1 @lean_int_big_eq(ptr noundef %2, ptr noundef %4) #5
  br i1 %11, label %14, label %12

12:                                               ; preds = %lean_int_dec_eq.exit.i, %9
  %13 = tail call ptr @l_Int_Linear_Poly_mul_x27(ptr noundef %1, ptr noundef %2)
  br label %l_Int_Linear_Poly_mul.exit

14:                                               ; preds = %lean_int_dec_eq.exit.i, %9
  %15 = ptrtoint ptr %1 to i64
  %16 = and i64 %15, 1
  %.not.i10 = icmp eq i64 %16, 0
  br i1 %.not.i10, label %17, label %lean_dec.exit.i

17:                                               ; preds = %14
  %18 = load i32, ptr %1, align 4, !tbaa !6
  %19 = icmp sgt i32 %18, 1
  br i1 %19, label %20, label %22, !prof !5

20:                                               ; preds = %17
  %21 = add nsw i32 %18, -1
  store i32 %21, ptr %1, align 4, !tbaa !6
  br label %lean_dec.exit.i

22:                                               ; preds = %17
  %.not.i.i = icmp eq i32 %18, 0
  br i1 %.not.i.i, label %lean_dec.exit.i, label %23

23:                                               ; preds = %22
  tail call void @lean_dec_ref_cold(ptr noundef nonnull %1) #5
  br label %lean_dec.exit.i

lean_dec.exit.i:                                  ; preds = %23, %22, %20, %14
  %24 = load ptr, ptr @l_Int_Linear_Expr_toPoly_x27___closed__1, align 8, !tbaa !11
  br label %l_Int_Linear_Poly_mul.exit

l_Int_Linear_Poly_mul.exit:                       ; preds = %12, %lean_dec.exit.i
  %.0.i = phi ptr [ %13, %12 ], [ %24, %lean_dec.exit.i ]
  %25 = tail call zeroext i8 @l_Int_Linear_beqPoly____x40_Init_Data_Int_Linear___hyg_596_(ptr noundef %0, ptr noundef %.0.i)
  %26 = ptrtoint ptr %.0.i to i64
  %27 = and i64 %26, 1
  %.not = icmp eq i64 %27, 0
  br i1 %.not, label %28, label %lean_dec.exit

28:                                               ; preds = %l_Int_Linear_Poly_mul.exit
  %29 = load i32, ptr %.0.i, align 4, !tbaa !6
  %30 = icmp sgt i32 %29, 1
  br i1 %30, label %31, label %33, !prof !5

31:                                               ; preds = %28
  %32 = add nsw i32 %29, -1
  store i32 %32, ptr %.0.i, align 4, !tbaa !6
  br label %lean_dec.exit

33:                                               ; preds = %28
  %.not.i = icmp eq i32 %29, 0
  br i1 %.not.i, label %lean_dec.exit, label %34

34:                                               ; preds = %33
  tail call void @lean_dec_ref_cold(ptr noundef nonnull %.0.i) #5
  br label %lean_dec.exit

lean_dec.exit:                                    ; preds = %34, %33, %31, %l_Int_Linear_Poly_mul.exit
  %35 = icmp eq i8 %25, 0
  br i1 %35, label %48, label %36

36:                                               ; preds = %lean_dec.exit
  %37 = load ptr, ptr @l_Int_Linear_instInhabitedExpr___closed__1, align 8, !tbaa !11
  %38 = ptrtoint ptr %37 to i64
  %39 = and i64 %7, %38
  %or.cond.not.not = icmp eq i64 %39, 0
  br i1 %or.cond.not.not, label %.critedge.i.i, label %40, !prof !13

40:                                               ; preds = %36
  %41 = lshr i64 %38, 1
  %42 = trunc i64 %41 to i32
  %43 = lshr i64 %5, 1
  %44 = trunc i64 %43 to i32
  %45 = icmp slt i32 %42, %44
  br label %lean_int_dec_lt.exit

.critedge.i.i:                                    ; preds = %36
  %46 = tail call zeroext i1 @lean_int_big_lt(ptr noundef %37, ptr noundef %2) #5
  br label %lean_int_dec_lt.exit

lean_int_dec_lt.exit:                             ; preds = %40, %.critedge.i.i
  %.0.i.i = phi i1 [ %45, %40 ], [ %46, %.critedge.i.i ]
  %47 = zext i1 %.0.i.i to i8
  br label %48

48:                                               ; preds = %lean_dec.exit, %lean_int_dec_lt.exit
  %.0 = phi i8 [ %47, %lean_int_dec_lt.exit ], [ 0, %lean_dec.exit ]
  ret i8 %.0
}